; Function Attrs: nounwind uwtable
define internal noundef nonnull ptr @set_eval_frame_default(ptr noundef %0, ptr readnone captures(none) %1) #0 {
  %.not.i6 = icmp eq ptr %0, null
  br i1 %.not.i6, label %3, label %4

3:                                                ; preds = %2
  tail call void @__assert_fail(ptr noundef nonnull @.str.151, ptr noundef nonnull @.str.80, i32 noundef 71, ptr noundef nonnull @__PRETTY_FUNCTION__.get_module_state) #12
  unreachable

4:                                                ; preds = %2
  %5 = tail call ptr @PyModule_GetState(ptr noundef nonnull %0) #11
  %.not5.i = icmp eq ptr %5, null
  br i1 %.not5.i, label %6, label %get_module_state.exit

6:                                                ; preds = %4
  tail call void @__assert_fail(ptr noundef nonnull @.str.152, ptr noundef nonnull @.str.80, i32 noundef 73, ptr noundef nonnull @__PRETTY_FUNCTION__.get_module_state) #12
  unreachable

get_module_state.exit:                            ; preds = %4
  %7 = tail call ptr @_PyThreadState_GetCurrent() #11
  %8 = getelementptr inbounds nuw i8, ptr %7, i64 16
  %9 = load ptr, ptr %8, align 8, !tbaa !45
  tail call void @_PyInterpreterState_SetEvalFrameFunc(ptr noundef %9, ptr noundef nonnull @_PyEval_EvalFrameDefault) #11
  %10 = load ptr, ptr %5, align 8, !tbaa !9
  %.not = icmp eq ptr %10, null
  br i1 %.not, label %Py_DECREF.exit, label %11

11:                                               ; preds = %get_module_state.exit
  store ptr null, ptr %5, align 8, !tbaa !9
  %12 = load i32, ptr %10, align 8, !tbaa !10
  %.not.i = icmp sgt i32 %12, -1
  br i1 %.not.i, label %13, label %Py_DECREF.exit

13:                                               ; preds = %11
  %14 = add nsw i32 %12, -1
  store i32 %14, ptr %10, align 8, !tbaa !10
  %15 = icmp eq i32 %14, 0
  br i1 %15, label %16, label %Py_DECREF.exit

16:                                               ; preds = %13
  tail call void @_Py_Dealloc(ptr noundef nonnull %10) #11
  br label %Py_DECREF.exit

Py_DECREF.exit:                                   ; preds = %16, %13, %11, %get_module_state.exit
  ret ptr @_Py_NoneStruct
}